; Function Attrs: nofree norecurse nosync nounwind memory(read, inaccessiblemem: none) uwtable
define float @Abc_ObjDelay0(ptr noundef readonly captures(none) %0, ptr noundef readonly captures(none) %1) local_unnamed_addr #6 {
  %3 = alloca [6 x ptr], align 16
  call void @llvm.lifetime.start.p0(i64 48, ptr nonnull %3) #13
  %4 = getelementptr i8, ptr %1, i64 28
  %.val.i = load i32, ptr %4, align 4, !tbaa !33
  %5 = icmp sgt i32 %.val.i, 0
  br i1 %5, label %.lr.ph48.i, label %._crit_edge

.lr.ph48.i:                                       ; preds = %2
  %.val34.i = load ptr, ptr %1, align 8, !tbaa !36
  %6 = getelementptr i8, ptr %1, i64 32
  %.val35.i = load ptr, ptr %6, align 8, !tbaa !37
  %7 = getelementptr i8, ptr %.val34.i, i64 32
  %.val34.val.i = load ptr, ptr %7, align 8, !tbaa !13
  %8 = getelementptr i8, ptr %.val34.val.i, i64 8
  %.val34.val.val.i = load ptr, ptr %8, align 8, !tbaa !38
  %9 = getelementptr i8, ptr %0, i64 24
  %10 = getelementptr inbounds nuw i8, ptr %0, i64 8
  %wide.trip.count.i = zext nneg i32 %.val.i to i64
  br label %11

11:                                               ; preds = %.loopexit.i, %.lr.ph48.i
  %indvars.iv.i = phi i64 [ 0, %.lr.ph48.i ], [ %indvars.iv.next.i, %.loopexit.i ]
  %12 = getelementptr inbounds nuw i32, ptr %.val35.i, i64 %indvars.iv.i
  %13 = load i32, ptr %12, align 4, !tbaa !39
  %14 = sext i32 %13 to i64
  %15 = getelementptr inbounds ptr, ptr %.val34.val.val.i, i64 %14
  %16 = load ptr, ptr %15, align 8, !tbaa !40
  %indvars.iv.next.i = add nuw nsw i64 %indvars.iv.i, 1
  %17 = getelementptr inbounds nuw ptr, ptr %3, i64 %indvars.iv.i
  store ptr %16, ptr %17, align 8, !tbaa !41
  %18 = getelementptr i8, ptr %16, i64 20
  %.val36.i = load i32, ptr %18, align 4
  %19 = and i32 %.val36.i, 15
  switch i32 %19, label %.preheader.i [
    i32 5, label %.loopexit.i
    i32 2, label %.loopexit.i
  ]

.preheader.i:                                     ; preds = %11
  %.not.i = icmp eq i64 %indvars.iv.i, 0
  br i1 %.not.i, label %.loopexit.i, label %.lr.ph.i

.lr.ph.i:                                         ; preds = %.preheader.i
  %.val37.i = load ptr, ptr %9, align 8, !tbaa !32
  %invariant.gep.i = getelementptr i8, ptr %.val37.i, i64 4
  %20 = load ptr, ptr %10, align 8, !tbaa !12
  %21 = getelementptr inbounds nuw i8, ptr %20, i64 16
  %.phi.trans.insert.i = getelementptr inbounds nuw [32 x float], ptr %21, i64 0, i64 %indvars.iv.i
  %.pre.i = load float, ptr %.phi.trans.insert.i, align 4, !tbaa !42
  br label %22

22:                                               ; preds = %40, %.lr.ph.i
  %23 = phi float [ %.pre.i, %.lr.ph.i ], [ %31, %40 ]
  %24 = phi ptr [ %16, %.lr.ph.i ], [ %41, %40 ]
  %indvars.iv49.i = phi i64 [ %indvars.iv.i, %.lr.ph.i ], [ %indvars.iv.next50.i, %40 ]
  %indvars.iv.next50.i = add nsw i64 %indvars.iv49.i, -1
  %25 = getelementptr inbounds nuw ptr, ptr %3, i64 %indvars.iv.next50.i
  %26 = load ptr, ptr %25, align 8, !tbaa !41
  %27 = getelementptr i8, ptr %26, i64 16
  %.val38.i = load i32, ptr %27, align 8, !tbaa !43
  %28 = sext i32 %.val38.i to i64
  %gep.i = getelementptr %struct.Abc_IffObj_t_, ptr %invariant.gep.i, i64 %28
  %29 = load float, ptr %gep.i, align 4, !tbaa !42
  %30 = getelementptr inbounds nuw [32 x float], ptr %21, i64 0, i64 %indvars.iv.next50.i
  %31 = load float, ptr %30, align 4, !tbaa !42
  %32 = fadd float %29, %31
  %33 = getelementptr i8, ptr %24, i64 16
  %.val40.i = load i32, ptr %33, align 8, !tbaa !43
  %34 = sext i32 %.val40.i to i64
  %gep45.i = getelementptr %struct.Abc_IffObj_t_, ptr %invariant.gep.i, i64 %34
  %35 = load float, ptr %gep45.i, align 4, !tbaa !42
  %36 = fadd float %23, %35
  %37 = fcmp olt float %32, %36
  br i1 %37, label %38, label %40

38:                                               ; preds = %22
  %39 = getelementptr inbounds nuw ptr, ptr %3, i64 %indvars.iv49.i
  store ptr %24, ptr %25, align 8, !tbaa !41
  store ptr %26, ptr %39, align 8, !tbaa !41
  br label %40

40:                                               ; preds = %38, %22
  %41 = phi ptr [ %26, %22 ], [ %24, %38 ]
  %42 = icmp sgt i64 %indvars.iv49.i, 1
  br i1 %42, label %22, label %.loopexit.i, !llvm.loop !44

.loopexit.i:                                      ; preds = %40, %.preheader.i, %11, %11
  %exitcond.not.i = icmp eq i64 %indvars.iv.next.i, %wide.trip.count.i
  br i1 %exitcond.not.i, label %.lr.ph, label %11, !llvm.loop !46

.lr.ph:                                           ; preds = %.loopexit.i
  %43 = getelementptr i8, ptr %0, i64 24
  %.val11 = load ptr, ptr %43, align 8, !tbaa !32
  %44 = getelementptr inbounds nuw i8, ptr %0, i64 8
  %45 = load ptr, ptr %44, align 8, !tbaa !12
  %46 = getelementptr inbounds nuw i8, ptr %45, i64 16
  %wide.trip.count = zext nneg i32 %.val.i to i64
  br label %47

47:                                               ; preds = %.lr.ph, %47
  %indvars.iv = phi i64 [ 0, %.lr.ph ], [ %indvars.iv.next, %47 ]
  %.014 = phi float [ 0.000000e+00, %.lr.ph ], [ %58, %47 ]
  %48 = getelementptr inbounds nuw [6 x ptr], ptr %3, i64 0, i64 %indvars.iv
  %49 = load ptr, ptr %48, align 8, !tbaa !41
  %50 = getelementptr i8, ptr %49, i64 16
  %.val12 = load i32, ptr %50, align 8, !tbaa !43
  %51 = sext i32 %.val12 to i64
  %52 = getelementptr inbounds %struct.Abc_IffObj_t_, ptr %.val11, i64 %51, i32 0, i64 1
  %53 = load float, ptr %52, align 4, !tbaa !42
  %54 = getelementptr inbounds nuw [32 x float], ptr %46, i64 0, i64 %indvars.iv
  %55 = load float, ptr %54, align 4, !tbaa !42
  %56 = fadd float %53, %55
  %57 = fcmp ogt float %.014, %56
  %58 = select i1 %57, float %.014, float %56
  %indvars.iv.next = add nuw nsw i64 %indvars.iv, 1
  %exitcond.not = icmp eq i64 %indvars.iv.next, %wide.trip.count
  br i1 %exitcond.not, label %._crit_edge, label %47, !llvm.loop !47

._crit_edge:                                      ; preds = %47, %2
  %.0.lcssa = phi float [ 0.000000e+00, %2 ], [ %58, %47 ]
  call void @llvm.lifetime.end.p0(i64 48, ptr nonnull %3) #13
  ret float %.0.lcssa
}